target datalayout = "e-m:e-p270:32:32-p271:32:32-p272:64:64-i64:64-i128:128-f80:128-n8:16:32:64-S128"
target triple = "x86_64-pc-linux-gnu"

%"class.datalog::relation_manager" = type { ptr, ptr, %class.ptr_vector, %class.ptr_vector.0, %class.map, %class.map.2, %class.u_map, ptr, ptr, %class.obj_map, %class.obj_hashtable, i32, i32, %class.obj_map.17 }
%class.ptr_vector = type { %class.vector }
%class.vector = type { ptr }
%class.ptr_vector.0 = type { %class.vector.1 }
%class.vector.1 = type { ptr }
%class.map = type { %class.table2map }
%class.table2map = type { %class.core_hashtable }
%class.core_hashtable = type <{ ptr, i32, i32, i32, [4 x i8] }>
%class.map.2 = type { %class.table2map.3 }
%class.table2map.3 = type { %class.core_hashtable.4 }
%class.core_hashtable.4 = type <{ ptr, i32, i32, i32, [4 x i8] }>
%class.u_map = type { %class.map.8 }
%class.map.8 = type { %class.table2map.9 }
%class.table2map.9 = type { %class.core_hashtable.10 }
%class.core_hashtable.10 = type <{ ptr, i32, i32, i32, [4 x i8] }>
%class.obj_map = type { %class.core_hashtable.12 }
%class.core_hashtable.12 = type <{ ptr, i32, i32, i32, [4 x i8] }>
%class.obj_hashtable = type { %class.core_hashtable.base.16, [4 x i8] }
%class.core_hashtable.base.16 = type <{ ptr, i32, i32, i32 }>
%class.obj_map.17 = type { %class.core_hashtable.18 }
%class.core_hashtable.18 = type <{ ptr, i32, i32, i32, [4 x i8] }>
%"struct.obj_map<func_decl, int>::key_data" = type <{ ptr, i32, [4 x i8] }>

; Function Attrs: mustprogress nounwind uwtable
define linkonce_odr hidden void @_ZN7obj_mapI9func_decliE8key_dataC2EPS0_RKi(ptr noundef nonnull align 8 dereferenceable(12) %0, ptr noundef %1, ptr noundef nonnull align 4 dereferenceable(4) %2) unnamed_addr #4 comdat align 2 {
  %4 = alloca ptr, align 8
  %5 = alloca ptr, align 8
  %6 = alloca ptr, align 8
  store ptr %0, ptr %4, align 8, !tbaa !1024
  store ptr %1, ptr %5, align 8, !tbaa !70
  store ptr %2, ptr %6, align 8, !tbaa !286
  %7 = load ptr, ptr %4, align 8
  %8 = getelementptr inbounds nuw %"struct.obj_map<func_decl, int>::key_data", ptr %7, i32 0, i32 0
  %9 = load ptr, ptr %5, align 8, !tbaa !70
  store ptr %9, ptr %8, align 8, !tbaa !1030
  %10 = getelementptr inbounds nuw %"struct.obj_map<func_decl, int>::key_data", ptr %7, i32 0, i32 1
  %11 = load ptr, ptr %6, align 8, !tbaa !286
  %12 = load i32, ptr %11, align 4, !tbaa !279
  store i32 %12, ptr %10, align 8, !tbaa !291
  ret void
}

; Function Attrs: mustprogress uwtable
define linkonce_odr hidden void @_ZN7obj_mapI9func_decliE6insertEPS0_RKi(ptr noundef nonnull align 8 dereferenceable(24) %0, ptr noundef %1, ptr noundef nonnull align 4 dereferenceable(4) %2) #5 comdat align 2 {
  %4 = alloca ptr, align 8
  %5 = alloca ptr, align 8
  %6 = alloca ptr, align 8
  %7 = alloca %"struct.obj_map<func_decl, int>::key_data", align 8
  store ptr %0, ptr %4, align 8, !tbaa !48
  store ptr %1, ptr %5, align 8, !tbaa !70
  store ptr %2, ptr %6, align 8, !tbaa !286
  %8 = load ptr, ptr %4, align 8
  %9 = getelementptr inbounds nuw %class.obj_map.17, ptr %8, i32 0, i32 0
  call void @llvm.lifetime.start.p0(i64 16, ptr %7) #3
  %10 = load ptr, ptr %5, align 8, !tbaa !70
  %11 = load ptr, ptr %6, align 8, !tbaa !286
  call void @_ZN7obj_mapI9func_decliE8key_dataC2EPS0_RKi(ptr noundef nonnull align 8 dereferenceable(12) %7, ptr noundef %10, ptr noundef nonnull align 4 dereferenceable(4) %11)
  call void @_ZN14core_hashtableIN7obj_mapI9func_decliE13obj_map_entryE8obj_hashINS2_8key_dataEE10default_eqIS5_EE6insertEOS5_(ptr noundef nonnull align 8 dereferenceable(20) %9, ptr noundef nonnull align 8 dereferenceable(12) %7)
  call void @llvm.lifetime.end.p0(i64 16, ptr %7) #3
  ret void
}

; Function Attrs: mustprogress uwtable
define hidden void @_ZN7datalog16relation_manager18set_predicate_kindEP9func_decli(ptr noundef nonnull align 8 dereferenceable(200) %0, ptr noundef %1, i32 noundef %2) #5 align 2 {
  %4 = alloca ptr, align 8
  %5 = alloca ptr, align 8
  %6 = alloca i32, align 4
  store ptr %0, ptr %4, align 8, !tbaa !3
  store ptr %1, ptr %5, align 8, !tbaa !70
  store i32 %2, ptr %6, align 4, !tbaa !279
  %7 = load ptr, ptr %4, align 8
  %8 = getelementptr inbounds nuw %"class.datalog::relation_manager", ptr %7, i32 0, i32 13
  %9 = load ptr, ptr %5, align 8, !tbaa !70
  call void @_ZN7obj_mapI9func_decliE6insertEPS0_RKi(ptr noundef nonnull align 8 dereferenceable(24) %8, ptr noundef %9, ptr noundef nonnull align 4 dereferenceable(4) %6)
  ret void
}