; Function Attrs: mustprogress uwtable
define hidden void @_ZN7datalog16relation_manager18set_predicate_kindEP9func_decli(ptr noundef nonnull align 8 dereferenceable(200) %0, ptr noundef %1, i32 noundef %2) local_unnamed_addr #4 align 2 {
  %4 = alloca %"struct.obj_map<func_decl, int>::key_data", align 8
  %5 = getelementptr inbounds nuw i8, ptr %0, i64 176
  call void @llvm.lifetime.start.p0(i64 16, ptr nonnull %4) #27
  store ptr %1, ptr %4, align 8, !tbaa !267
  %6 = getelementptr inbounds nuw i8, ptr %4, i64 8
  store i32 %2, ptr %6, align 8, !tbaa !269
  call void @_ZN14core_hashtableIN7obj_mapI9func_decliE13obj_map_entryE8obj_hashINS2_8key_dataEE10default_eqIS5_EE6insertEOS5_(ptr noundef nonnull align 8 dereferenceable(24) %5, ptr noundef nonnull align 8 dereferenceable(12) %4)
  call void @llvm.lifetime.end.p0(i64 16, ptr nonnull %4) #27
  ret void
}